target datalayout = "e-m:e-p270:32:32-p271:32:32-p272:64:64-i64:64-i128:128-f80:128-n8:16:32:64-S128"
target triple = "x86_64-pc-linux-gnu"

%"class.testing::internal::linked_ptr_internal" = type { ptr }
%"class.testing::internal::ParamIterator" = type { %"class.testing::internal::scoped_ptr.84" }
%"class.testing::internal::scoped_ptr.84" = type { ptr }
%"class.testing::internal::ParamIterator.85" = type { %"class.testing::internal::scoped_ptr.86" }
%"class.testing::internal::scoped_ptr.86" = type { ptr }
%"class.testing::internal::CartesianProductGenerator2<int, opencv_test::(anonymous namespace)::pnpAlgo>::Iterator" = type { %"class.testing::internal::ParamIteratorInterface.83", ptr, %"class.testing::internal::ParamIterator", %"class.testing::internal::ParamIterator", %"class.testing::internal::ParamIterator", %"class.testing::internal::ParamIterator.85", %"class.testing::internal::ParamIterator.85", %"class.testing::internal::ParamIterator.85", %"class.testing::internal::linked_ptr.87" }
%"class.testing::internal::ParamIteratorInterface.83" = type { ptr }
%"class.testing::internal::linked_ptr.87" = type { ptr, %"class.testing::internal::linked_ptr_internal" }

; Function Attrs: mustprogress nounwind uwtable
define linkonce_odr hidden void @_ZN7testing8internal19linked_ptr_internal8join_newEv(ptr noundef nonnull align 8 dereferenceable(8) %0) #4 comdat align 2 {
  %2 = alloca ptr, align 8
  store ptr %0, ptr %2, align 8
  %3 = load ptr, ptr %2, align 8
  %4 = getelementptr inbounds %"class.testing::internal::linked_ptr_internal", ptr %3, i32 0, i32 0
  store ptr %3, ptr %4, align 8
  ret void
}

; Function Attrs: mustprogress nounwind uwtable
define internal void @_ZN7testing8internal10linked_ptrISt5tupleIJiN11opencv_test12_GLOBAL__N_17pnpAlgoEEEE7captureEPS6_(ptr noundef nonnull align 8 dereferenceable(16) %0, ptr noundef %1) #4 align 2 {
  %3 = alloca ptr, align 8
  %4 = alloca ptr, align 8
  store ptr %0, ptr %3, align 8
  store ptr %1, ptr %4, align 8
  %5 = load ptr, ptr %3, align 8
  %6 = load ptr, ptr %4, align 8
  %7 = getelementptr inbounds %"class.testing::internal::linked_ptr.87", ptr %5, i32 0, i32 0
  store ptr %6, ptr %7, align 8
  %8 = getelementptr inbounds %"class.testing::internal::linked_ptr.87", ptr %5, i32 0, i32 1
  call void @_ZN7testing8internal19linked_ptr_internal8join_newEv(ptr noundef nonnull align 8 dereferenceable(8) %8)
  ret void
}

; Function Attrs: mustprogress nounwind uwtable
define internal void @_ZN7testing8internal10scoped_ptrINS0_22ParamIteratorInterfaceIN11opencv_test12_GLOBAL__N_17pnpAlgoEEEEC2EPS6_(ptr noundef nonnull align 8 dereferenceable(8) %0, ptr noundef %1) unnamed_addr #4 align 2 {
  %3 = alloca ptr, align 8
  %4 = alloca ptr, align 8
  store ptr %0, ptr %3, align 8
  store ptr %1, ptr %4, align 8
  %5 = load ptr, ptr %3, align 8
  %6 = getelementptr inbounds %"class.testing::internal::scoped_ptr.86", ptr %5, i32 0, i32 0
  %7 = load ptr, ptr %4, align 8
  store ptr %7, ptr %6, align 8
  ret void
}

; Function Attrs: mustprogress nounwind uwtable
define internal noundef ptr @_ZNK7testing8internal10scoped_ptrINS0_22ParamIteratorInterfaceIN11opencv_test12_GLOBAL__N_17pnpAlgoEEEEptEv(ptr noundef nonnull align 8 dereferenceable(8) %0) #4 align 2 {
  %2 = alloca ptr, align 8
  store ptr %0, ptr %2, align 8
  %3 = load ptr, ptr %2, align 8
  %4 = getelementptr inbounds %"class.testing::internal::scoped_ptr.86", ptr %3, i32 0, i32 0
  %5 = load ptr, ptr %4, align 8
  ret ptr %5
}

; Function Attrs: mustprogress nounwind uwtable
define linkonce_odr hidden void @_ZN7testing8internal10scoped_ptrINS0_22ParamIteratorInterfaceIiEEEC2EPS3_(ptr noundef nonnull align 8 dereferenceable(8) %0, ptr noundef %1) unnamed_addr #4 comdat align 2 {
  %3 = alloca ptr, align 8
  %4 = alloca ptr, align 8
  store ptr %0, ptr %3, align 8
  store ptr %1, ptr %4, align 8
  %5 = load ptr, ptr %3, align 8
  %6 = getelementptr inbounds %"class.testing::internal::scoped_ptr.84", ptr %5, i32 0, i32 0
  %7 = load ptr, ptr %4, align 8
  store ptr %7, ptr %6, align 8
  ret void
}

; Function Attrs: mustprogress nounwind uwtable
define linkonce_odr hidden noundef ptr @_ZNK7testing8internal10scoped_ptrINS0_22ParamIteratorInterfaceIiEEEptEv(ptr noundef nonnull align 8 dereferenceable(8) %0) #4 comdat align 2 {
  %2 = alloca ptr, align 8
  store ptr %0, ptr %2, align 8
  %3 = load ptr, ptr %2, align 8
  %4 = getelementptr inbounds %"class.testing::internal::scoped_ptr.84", ptr %3, i32 0, i32 0
  %5 = load ptr, ptr %4, align 8
  ret ptr %5
}

; Function Attrs: mustprogress nounwind uwtable
define internal void @_ZN7testing8internal22ParamIteratorInterfaceISt5tupleIJiN11opencv_test12_GLOBAL__N_17pnpAlgoEEEED2Ev(ptr noundef nonnull align 8 dereferenceable(8) %0) unnamed_addr #4 align 2 {
  %2 = alloca ptr, align 8
  store ptr %0, ptr %2, align 8
  ret void
}

; Function Attrs: mustprogress uwtable
define internal void @_ZN7testing8internal10linked_ptrISt5tupleIJiN11opencv_test12_GLOBAL__N_17pnpAlgoEEEEC2EPS6_(ptr noundef nonnull align 8 dereferenceable(16) %0, ptr noundef %1) unnamed_addr #5 align 2 {
  %3 = alloca ptr, align 8
  %4 = alloca ptr, align 8
  store ptr %0, ptr %3, align 8
  store ptr %1, ptr %4, align 8
  %5 = load ptr, ptr %3, align 8
  %6 = load ptr, ptr %4, align 8
  call void @_ZN7testing8internal10linked_ptrISt5tupleIJiN11opencv_test12_GLOBAL__N_17pnpAlgoEEEE7captureEPS6_(ptr noundef nonnull align 8 dereferenceable(16) %5, ptr noundef %6)
  ret void
}

; Function Attrs: mustprogress uwtable
define internal void @_ZN7testing8internal13ParamIteratorIN11opencv_test12_GLOBAL__N_17pnpAlgoEEC2ERKS5_(ptr noundef nonnull align 8 dereferenceable(8) %0, ptr noundef nonnull align 8 dereferenceable(8) %1) unnamed_addr #5 align 2 {
  %3 = alloca ptr, align 8
  %4 = alloca ptr, align 8
  store ptr %0, ptr %3, align 8
  store ptr %1, ptr %4, align 8
  %5 = load ptr, ptr %3, align 8
  %6 = getelementptr inbounds %"class.testing::internal::ParamIterator.85", ptr %5, i32 0, i32 0
  %7 = load ptr, ptr %4, align 8
  %8 = getelementptr inbounds %"class.testing::internal::ParamIterator.85", ptr %7, i32 0, i32 0
  %9 = call noundef ptr @_ZNK7testing8internal10scoped_ptrINS0_22ParamIteratorInterfaceIN11opencv_test12_GLOBAL__N_17pnpAlgoEEEEptEv(ptr noundef nonnull align 8 dereferenceable(8) %8)
  %10 = load ptr, ptr %9, align 8
  %11 = getelementptr inbounds ptr, ptr %10, i64 4
  %12 = load ptr, ptr %11, align 8
  %13 = call noundef ptr %12(ptr noundef nonnull align 8 dereferenceable(8) %9)
  call void @_ZN7testing8internal10scoped_ptrINS0_22ParamIteratorInterfaceIN11opencv_test12_GLOBAL__N_17pnpAlgoEEEEC2EPS6_(ptr noundef nonnull align 8 dereferenceable(8) %6, ptr noundef %13)
  ret void
}

; Function Attrs: mustprogress uwtable
define linkonce_odr hidden void @_ZN7testing8internal13ParamIteratorIiEC2ERKS2_(ptr noundef nonnull align 8 dereferenceable(8) %0, ptr noundef nonnull align 8 dereferenceable(8) %1) unnamed_addr #5 comdat align 2 {
  %3 = alloca ptr, align 8
  %4 = alloca ptr, align 8
  store ptr %0, ptr %3, align 8
  store ptr %1, ptr %4, align 8
  %5 = load ptr, ptr %3, align 8
  %6 = getelementptr inbounds %"class.testing::internal::ParamIterator", ptr %5, i32 0, i32 0
  %7 = load ptr, ptr %4, align 8
  %8 = getelementptr inbounds %"class.testing::internal::ParamIterator", ptr %7, i32 0, i32 0
  %9 = call noundef ptr @_ZNK7testing8internal10scoped_ptrINS0_22ParamIteratorInterfaceIiEEEptEv(ptr noundef nonnull align 8 dereferenceable(8) %8)
  %10 = load ptr, ptr %9, align 8
  %11 = getelementptr inbounds ptr, ptr %10, i64 4
  %12 = load ptr, ptr %11, align 8
  %13 = call noundef ptr %12(ptr noundef nonnull align 8 dereferenceable(8) %9)
  call void @_ZN7testing8internal10scoped_ptrINS0_22ParamIteratorInterfaceIiEEEC2EPS3_(ptr noundef nonnull align 8 dereferenceable(8) %6, ptr noundef %13)
  ret void
}

; Function Attrs: mustprogress nounwind uwtable
define internal void @_ZN7testing8internal22ParamIteratorInterfaceISt5tupleIJiN11opencv_test12_GLOBAL__N_17pnpAlgoEEEEC2Ev(ptr noundef nonnull align 8 dereferenceable(8) %0) unnamed_addr #4 align 2 {
  %2 = alloca ptr, align 8
  store ptr %0, ptr %2, align 8
  %3 = load ptr, ptr %2, align 8
  store ptr getelementptr inbounds inrange(-16, 56) ({ [9 x ptr] }, ptr @_ZTVN7testing8internal22ParamIteratorInterfaceISt5tupleIJiN11opencv_test12_GLOBAL__N_17pnpAlgoEEEEE, i32 0, i32 0, i32 2), ptr %3, align 8
  ret void
}

; Function Attrs: mustprogress uwtable
define internal void @_ZN7testing8internal26CartesianProductGenerator2IiN11opencv_test12_GLOBAL__N_17pnpAlgoEE8IteratorC2ERKS6_(ptr noundef nonnull align 8 dereferenceable(80) %0, ptr noundef nonnull align 8 dereferenceable(80) %1) unnamed_addr #5 align 2 personality ptr @__gxx_personality_v0 {
  %3 = alloca ptr, align 8
  %4 = alloca ptr, align 8
  %5 = alloca ptr, align 8
  %6 = alloca i32, align 4
  store ptr %0, ptr %3, align 8
  store ptr %1, ptr %4, align 8
  %7 = load ptr, ptr %3, align 8
  call void @_ZN7testing8internal22ParamIteratorInterfaceISt5tupleIJiN11opencv_test12_GLOBAL__N_17pnpAlgoEEEEC2Ev(ptr noundef nonnull align 8 dereferenceable(8) %7) #3
  store ptr getelementptr inbounds inrange(-16, 56) ({ [9 x ptr] }, ptr @_ZTVN7testing8internal26CartesianProductGenerator2IiN11opencv_test12_GLOBAL__N_17pnpAlgoEE8IteratorE, i32 0, i32 0, i32 2), ptr %7, align 8
  %8 = getelementptr inbounds %"class.testing::internal::CartesianProductGenerator2<int, opencv_test::(anonymous namespace)::pnpAlgo>::Iterator", ptr %7, i32 0, i32 1
  %9 = load ptr, ptr %4, align 8
  %10 = getelementptr inbounds %"class.testing::internal::CartesianProductGenerator2<int, opencv_test::(anonymous namespace)::pnpAlgo>::Iterator", ptr %9, i32 0, i32 1
  %11 = load ptr, ptr %10, align 8
  store ptr %11, ptr %8, align 8
  %12 = getelementptr inbounds %"class.testing::internal::CartesianProductGenerator2<int, opencv_test::(anonymous namespace)::pnpAlgo>::Iterator", ptr %7, i32 0, i32 2
  %13 = load ptr, ptr %4, align 8
  %14 = getelementptr inbounds %"class.testing::internal::CartesianProductGenerator2<int, opencv_test::(anonymous namespace)::pnpAlgo>::Iterator", ptr %13, i32 0, i32 2
  invoke void @_ZN7testing8internal13ParamIteratorIiEC2ERKS2_(ptr noundef nonnull align 8 dereferenceable(8) %12, ptr noundef nonnull align 8 dereferenceable(8) %14)
          to label %15 unwind label %39

15:                                               ; preds = %2
  %16 = getelementptr inbounds %"class.testing::internal::CartesianProductGenerator2<int, opencv_test::(anonymous namespace)::pnpAlgo>::Iterator", ptr %7, i32 0, i32 3
  %17 = load ptr, ptr %4, align 8
  %18 = getelementptr inbounds %"class.testing::internal::CartesianProductGenerator2<int, opencv_test::(anonymous namespace)::pnpAlgo>::Iterator", ptr %17, i32 0, i32 3
  invoke void @_ZN7testing8internal13ParamIteratorIiEC2ERKS2_(ptr noundef nonnull align 8 dereferenceable(8) %16, ptr noundef nonnull align 8 dereferenceable(8) %18)
          to label %19 unwind label %43

19:                                               ; preds = %15
  %20 = getelementptr inbounds %"class.testing::internal::CartesianProductGenerator2<int, opencv_test::(anonymous namespace)::pnpAlgo>::Iterator", ptr %7, i32 0, i32 4
  %21 = load ptr, ptr %4, align 8
  %22 = getelementptr inbounds %"class.testing::internal::CartesianProductGenerator2<int, opencv_test::(anonymous namespace)::pnpAlgo>::Iterator", ptr %21, i32 0, i32 4
  invoke void @_ZN7testing8internal13ParamIteratorIiEC2ERKS2_(ptr noundef nonnull align 8 dereferenceable(8) %20, ptr noundef nonnull align 8 dereferenceable(8) %22)
          to label %23 unwind label %47

23:                                               ; preds = %19
  %24 = getelementptr inbounds %"class.testing::internal::CartesianProductGenerator2<int, opencv_test::(anonymous namespace)::pnpAlgo>::Iterator", ptr %7, i32 0, i32 5
  %25 = load ptr, ptr %4, align 8
  %26 = getelementptr inbounds %"class.testing::internal::CartesianProductGenerator2<int, opencv_test::(anonymous namespace)::pnpAlgo>::Iterator", ptr %25, i32 0, i32 5
  invoke void @_ZN7testing8internal13ParamIteratorIN11opencv_test12_GLOBAL__N_17pnpAlgoEEC2ERKS5_(ptr noundef nonnull align 8 dereferenceable(8) %24, ptr noundef nonnull align 8 dereferenceable(8) %26)
          to label %27 unwind label %51

27:                                               ; preds = %23
  %28 = getelementptr inbounds %"class.testing::internal::CartesianProductGenerator2<int, opencv_test::(anonymous namespace)::pnpAlgo>::Iterator", ptr %7, i32 0, i32 6
  %29 = load ptr, ptr %4, align 8
  %30 = getelementptr inbounds %"class.testing::internal::CartesianProductGenerator2<int, opencv_test::(anonymous namespace)::pnpAlgo>::Iterator", ptr %29, i32 0, i32 6
  invoke void @_ZN7testing8internal13ParamIteratorIN11opencv_test12_GLOBAL__N_17pnpAlgoEEC2ERKS5_(ptr noundef nonnull align 8 dereferenceable(8) %28, ptr noundef nonnull align 8 dereferenceable(8) %30)
          to label %31 unwind label %55

31:                                               ; preds = %27
  %32 = getelementptr inbounds %"class.testing::internal::CartesianProductGenerator2<int, opencv_test::(anonymous namespace)::pnpAlgo>::Iterator", ptr %7, i32 0, i32 7
  %33 = load ptr, ptr %4, align 8
  %34 = getelementptr inbounds %"class.testing::internal::CartesianProductGenerator2<int, opencv_test::(anonymous namespace)::pnpAlgo>::Iterator", ptr %33, i32 0, i32 7
  invoke void @_ZN7testing8internal13ParamIteratorIN11opencv_test12_GLOBAL__N_17pnpAlgoEEC2ERKS5_(ptr noundef nonnull align 8 dereferenceable(8) %32, ptr noundef nonnull align 8 dereferenceable(8) %34)
          to label %35 unwind label %59

35:                                               ; preds = %31
  %36 = getelementptr inbounds %"class.testing::internal::CartesianProductGenerator2<int, opencv_test::(anonymous namespace)::pnpAlgo>::Iterator", ptr %7, i32 0, i32 8
  invoke void @_ZN7testing8internal10linked_ptrISt5tupleIJiN11opencv_test12_GLOBAL__N_17pnpAlgoEEEEC2EPS6_(ptr noundef nonnull align 8 dereferenceable(16) %36, ptr noundef null)
          to label %37 unwind label %63

37:                                               ; preds = %35
  invoke void @_ZN7testing8internal26CartesianProductGenerator2IiN11opencv_test12_GLOBAL__N_17pnpAlgoEE8Iterator19ComputeCurrentValueEv(ptr noundef nonnull align 8 dereferenceable(80) %7)
          to label %38 unwind label %67

38:                                               ; preds = %37
  ret void

39:                                               ; preds = %2
  %40 = landingpad { ptr, i32 }
          cleanup
  %41 = extractvalue { ptr, i32 } %40, 0
  store ptr %41, ptr %5, align 8
  %42 = extractvalue { ptr, i32 } %40, 1
  store i32 %42, ptr %6, align 4
  br label %77

43:                                               ; preds = %15
  %44 = landingpad { ptr, i32 }
          cleanup
  %45 = extractvalue { ptr, i32 } %44, 0
  store ptr %45, ptr %5, align 8
  %46 = extractvalue { ptr, i32 } %44, 1
  store i32 %46, ptr %6, align 4
  br label %76

47:                                               ; preds = %19
  %48 = landingpad { ptr, i32 }
          cleanup
  %49 = extractvalue { ptr, i32 } %48, 0
  store ptr %49, ptr %5, align 8
  %50 = extractvalue { ptr, i32 } %48, 1
  store i32 %50, ptr %6, align 4
  br label %75

51:                                               ; preds = %23
  %52 = landingpad { ptr, i32 }
          cleanup
  %53 = extractvalue { ptr, i32 } %52, 0
  store ptr %53, ptr %5, align 8
  %54 = extractvalue { ptr, i32 } %52, 1
  store i32 %54, ptr %6, align 4
  br label %74

55:                                               ; preds = %27
  %56 = landingpad { ptr, i32 }
          cleanup
  %57 = extractvalue { ptr, i32 } %56, 0
  store ptr %57, ptr %5, align 8
  %58 = extractvalue { ptr, i32 } %56, 1
  store i32 %58, ptr %6, align 4
  br label %73

59:                                               ; preds = %31
  %60 = landingpad { ptr, i32 }
          cleanup
  %61 = extractvalue { ptr, i32 } %60, 0
  store ptr %61, ptr %5, align 8
  %62 = extractvalue { ptr, i32 } %60, 1
  store i32 %62, ptr %6, align 4
  br label %72

63:                                               ; preds = %35
  %64 = landingpad { ptr, i32 }
          cleanup
  %65 = extractvalue { ptr, i32 } %64, 0
  store ptr %65, ptr %5, align 8
  %66 = extractvalue { ptr, i32 } %64, 1
  store i32 %66, ptr %6, align 4
  br label %71

67:                                               ; preds = %37
  %68 = landingpad { ptr, i32 }
          cleanup
  %69 = extractvalue { ptr, i32 } %68, 0
  store ptr %69, ptr %5, align 8
  %70 = extractvalue { ptr, i32 } %68, 1
  store i32 %70, ptr %6, align 4
  call void @_ZN7testing8internal10linked_ptrISt5tupleIJiN11opencv_test12_GLOBAL__N_17pnpAlgoEEEED2Ev(ptr noundef nonnull align 8 dereferenceable(16) %36) #3
  br label %71

71:                                               ; preds = %67, %63
  call void @_ZN7testing8internal13ParamIteratorIN11opencv_test12_GLOBAL__N_17pnpAlgoEED2Ev(ptr noundef nonnull align 8 dereferenceable(8) %32) #3
  br label %72

72:                                               ; preds = %71, %59
  call void @_ZN7testing8internal13ParamIteratorIN11opencv_test12_GLOBAL__N_17pnpAlgoEED2Ev(ptr noundef nonnull align 8 dereferenceable(8) %28) #3
  br label %73

73:                                               ; preds = %72, %55
  call void @_ZN7testing8internal13ParamIteratorIN11opencv_test12_GLOBAL__N_17pnpAlgoEED2Ev(ptr noundef nonnull align 8 dereferenceable(8) %24) #3
  br label %74

74:                                               ; preds = %73, %51
  call void @_ZN7testing8internal13ParamIteratorIiED2Ev(ptr noundef nonnull align 8 dereferenceable(8) %20) #3
  br label %75

75:                                               ; preds = %74, %47
  call void @_ZN7testing8internal13ParamIteratorIiED2Ev(ptr noundef nonnull align 8 dereferenceable(8) %16) #3
  br label %76

76:                                               ; preds = %75, %43
  call void @_ZN7testing8internal13ParamIteratorIiED2Ev(ptr noundef nonnull align 8 dereferenceable(8) %12) #3
  br label %77

77:                                               ; preds = %76, %39
  call void @_ZN7testing8internal22ParamIteratorInterfaceISt5tupleIJiN11opencv_test12_GLOBAL__N_17pnpAlgoEEEED2Ev(ptr noundef nonnull align 8 dereferenceable(8) %7) #3
  br label %78

78:                                               ; preds = %77
  %79 = load ptr, ptr %5, align 8
  %80 = load i32, ptr %6, align 4
  %81 = insertvalue { ptr, i32 } poison, ptr %79, 0
  %82 = insertvalue { ptr, i32 } %81, i32 %80, 1
  resume { ptr, i32 } %82
}

; Function Attrs: mustprogress uwtable
define internal noundef ptr @_ZNK7testing8internal26CartesianProductGenerator2IiN11opencv_test12_GLOBAL__N_17pnpAlgoEE8Iterator5CloneEv(ptr noundef nonnull align 8 dereferenceable(80) %0) unnamed_addr #5 align 2 personality ptr @__gxx_personality_v0 {
  %2 = alloca ptr, align 8
  %3 = alloca ptr, align 8
  %4 = alloca i32, align 4
  store ptr %0, ptr %2, align 8
  %5 = load ptr, ptr %2, align 8
  %6 = call noalias noundef nonnull ptr @_Znwm(i64 noundef 80) #19
  invoke void @_ZN7testing8internal26CartesianProductGenerator2IiN11opencv_test12_GLOBAL__N_17pnpAlgoEE8IteratorC2ERKS6_(ptr noundef nonnull align 8 dereferenceable(80) %6, ptr noundef nonnull align 8 dereferenceable(80) %5)
          to label %7 unwind label %8

7:                                                ; preds = %1
  ret ptr %6

8:                                                ; preds = %1
  %9 = landingpad { ptr, i32 }
          cleanup
  %10 = extractvalue { ptr, i32 } %9, 0
  store ptr %10, ptr %3, align 8
  %11 = extractvalue { ptr, i32 } %9, 1
  store i32 %11, ptr %4, align 4
  call void @_ZdlPv(ptr noundef %6) #20
  br label %12

12:                                               ; preds = %8
  %13 = load ptr, ptr %3, align 8
  %14 = load i32, ptr %4, align 4
  %15 = insertvalue { ptr, i32 } poison, ptr %13, 0
  %16 = insertvalue { ptr, i32 } %15, i32 %14, 1
  resume { ptr, i32 } %16
}