; Function Attrs: mustprogress uwtable
define internal noundef ptr @_ZNK7testing8internal26CartesianProductGenerator2IiN11opencv_test12_GLOBAL__N_17pnpAlgoEE8Iterator5CloneEv(ptr nocapture noundef nonnull readonly align 8 dereferenceable(80) %0) unnamed_addr #3 align 2 personality ptr @__gxx_personality_v0 {
  %2 = tail call noalias noundef nonnull dereferenceable(80) ptr @_Znwm(i64 noundef 80) #27
  store ptr getelementptr inbounds inrange(-16, 56) (i8, ptr @_ZTVN7testing8internal26CartesianProductGenerator2IiN11opencv_test12_GLOBAL__N_17pnpAlgoEE8IteratorE, i64 16), ptr %2, align 8
  %3 = getelementptr inbounds i8, ptr %2, i64 8
  %4 = getelementptr inbounds i8, ptr %0, i64 8
  %5 = load ptr, ptr %4, align 8
  store ptr %5, ptr %3, align 8
  %6 = getelementptr inbounds i8, ptr %2, i64 16
  %7 = getelementptr inbounds i8, ptr %0, i64 16
  %8 = load ptr, ptr %7, align 8
  %9 = load ptr, ptr %8, align 8
  %10 = getelementptr inbounds i8, ptr %9, i64 32
  %11 = load ptr, ptr %10, align 8
  %12 = invoke noundef ptr %11(ptr noundef nonnull align 8 dereferenceable(8) %8)
          to label %.noexc unwind label %69

.noexc:                                           ; preds = %1
  store ptr %12, ptr %6, align 8
  %13 = getelementptr inbounds i8, ptr %2, i64 24
  %14 = getelementptr inbounds i8, ptr %0, i64 24
  %15 = load ptr, ptr %14, align 8
  %16 = load ptr, ptr %15, align 8
  %17 = getelementptr inbounds i8, ptr %16, i64 32
  %18 = load ptr, ptr %17, align 8
  %19 = invoke noundef ptr %18(ptr noundef nonnull align 8 dereferenceable(8) %15)
          to label %20 unwind label %52

20:                                               ; preds = %.noexc
  store ptr %19, ptr %13, align 8
  %21 = getelementptr inbounds i8, ptr %2, i64 32
  %22 = getelementptr inbounds i8, ptr %0, i64 32
  %23 = load ptr, ptr %22, align 8
  %24 = load ptr, ptr %23, align 8
  %25 = getelementptr inbounds i8, ptr %24, i64 32
  %26 = load ptr, ptr %25, align 8
  %27 = invoke noundef ptr %26(ptr noundef nonnull align 8 dereferenceable(8) %23)
          to label %28 unwind label %54

28:                                               ; preds = %20
  store ptr %27, ptr %21, align 8
  %29 = getelementptr inbounds i8, ptr %2, i64 40
  %30 = getelementptr inbounds i8, ptr %0, i64 40
  %.val24.i = load ptr, ptr %30, align 8
  %31 = load ptr, ptr %.val24.i, align 8
  %32 = getelementptr inbounds i8, ptr %31, i64 32
  %33 = load ptr, ptr %32, align 8
  %34 = invoke noundef ptr %33(ptr noundef nonnull align 8 dereferenceable(8) %.val24.i)
          to label %35 unwind label %56

35:                                               ; preds = %28
  store ptr %34, ptr %29, align 8
  %36 = getelementptr inbounds i8, ptr %2, i64 48
  %37 = getelementptr inbounds i8, ptr %0, i64 48
  %.val23.i = load ptr, ptr %37, align 8
  %38 = load ptr, ptr %.val23.i, align 8
  %39 = getelementptr inbounds i8, ptr %38, i64 32
  %40 = load ptr, ptr %39, align 8
  %41 = invoke noundef ptr %40(ptr noundef nonnull align 8 dereferenceable(8) %.val23.i)
          to label %42 unwind label %58

42:                                               ; preds = %35
  store ptr %41, ptr %36, align 8
  %43 = getelementptr inbounds i8, ptr %2, i64 56
  %44 = getelementptr inbounds i8, ptr %0, i64 56
  %.val.i = load ptr, ptr %44, align 8
  %45 = load ptr, ptr %.val.i, align 8
  %46 = getelementptr inbounds i8, ptr %45, i64 32
  %47 = load ptr, ptr %46, align 8
  %48 = invoke noundef ptr %47(ptr noundef nonnull align 8 dereferenceable(8) %.val.i)
          to label %49 unwind label %60

49:                                               ; preds = %42
  store ptr %48, ptr %43, align 8
  %50 = getelementptr inbounds i8, ptr %2, i64 64
  store ptr null, ptr %50, align 8
  %51 = getelementptr inbounds i8, ptr %2, i64 72
  store ptr %51, ptr %51, align 8
  invoke fastcc void @_ZN7testing8internal26CartesianProductGenerator2IiN11opencv_test12_GLOBAL__N_17pnpAlgoEE8Iterator19ComputeCurrentValueEv(ptr noundef nonnull align 8 dereferenceable(80) %2)
          to label %_ZN7testing8internal26CartesianProductGenerator2IiN11opencv_test12_GLOBAL__N_17pnpAlgoEE8IteratorC2ERKS6_.exit unwind label %62

52:                                               ; preds = %.noexc
  %53 = landingpad { ptr, i32 }
          cleanup
  br label %68

54:                                               ; preds = %20
  %55 = landingpad { ptr, i32 }
          cleanup
  br label %67

56:                                               ; preds = %28
  %57 = landingpad { ptr, i32 }
          cleanup
  br label %66

58:                                               ; preds = %35
  %59 = landingpad { ptr, i32 }
          cleanup
  br label %65

60:                                               ; preds = %42
  %61 = landingpad { ptr, i32 }
          cleanup
  br label %64

62:                                               ; preds = %49
  %63 = landingpad { ptr, i32 }
          cleanup
  tail call fastcc void @_ZN7testing8internal10linked_ptrISt5tupleIJiN11opencv_test12_GLOBAL__N_17pnpAlgoEEEED2Ev(ptr noundef nonnull align 8 dereferenceable(16) %50) #26
  tail call fastcc void @_ZN7testing8internal13ParamIteratorIN11opencv_test12_GLOBAL__N_17pnpAlgoEED2Ev(ptr noundef nonnull align 8 dereferenceable(8) %43) #26
  br label %64

64:                                               ; preds = %62, %60
  %.pn.pn.i = phi { ptr, i32 } [ %63, %62 ], [ %61, %60 ]
  tail call fastcc void @_ZN7testing8internal13ParamIteratorIN11opencv_test12_GLOBAL__N_17pnpAlgoEED2Ev(ptr noundef nonnull align 8 dereferenceable(8) %36) #26
  br label %65

65:                                               ; preds = %64, %58
  %.pn.pn.pn.i = phi { ptr, i32 } [ %.pn.pn.i, %64 ], [ %59, %58 ]
  tail call fastcc void @_ZN7testing8internal13ParamIteratorIN11opencv_test12_GLOBAL__N_17pnpAlgoEED2Ev(ptr noundef nonnull align 8 dereferenceable(8) %29) #26
  br label %66

66:                                               ; preds = %65, %56
  %.pn.pn.pn.pn.i = phi { ptr, i32 } [ %.pn.pn.pn.i, %65 ], [ %57, %56 ]
  tail call void @_ZN7testing8internal13ParamIteratorIiED2Ev(ptr noundef nonnull align 8 dereferenceable(8) %21) #26
  br label %67

67:                                               ; preds = %66, %54
  %.pn.pn.pn.pn.pn.i = phi { ptr, i32 } [ %.pn.pn.pn.pn.i, %66 ], [ %55, %54 ]
  tail call void @_ZN7testing8internal13ParamIteratorIiED2Ev(ptr noundef nonnull align 8 dereferenceable(8) %13) #26
  br label %68

68:                                               ; preds = %67, %52
  %.pn.pn.pn.pn.pn.pn.i = phi { ptr, i32 } [ %.pn.pn.pn.pn.pn.i, %67 ], [ %53, %52 ]
  tail call void @_ZN7testing8internal13ParamIteratorIiED2Ev(ptr noundef nonnull align 8 dereferenceable(8) %6) #26
  br label %.body

_ZN7testing8internal26CartesianProductGenerator2IiN11opencv_test12_GLOBAL__N_17pnpAlgoEE8IteratorC2ERKS6_.exit: ; preds = %49
  ret ptr %2

69:                                               ; preds = %1
  %70 = landingpad { ptr, i32 }
          cleanup
  br label %.body

.body:                                            ; preds = %68, %69
  %eh.lpad-body = phi { ptr, i32 } [ %70, %69 ], [ %.pn.pn.pn.pn.pn.pn.i, %68 ]
  tail call void @_ZdlPv(ptr noundef nonnull %2) #29
  resume { ptr, i32 } %eh.lpad-body
}